target datalayout = "e-m:e-p270:32:32-p271:32:32-p272:64:64-i64:64-i128:128-f80:128-n8:16:32:64-S128"
target triple = "x86_64-pc-linux-gnu"

%struct._ikev2_uat_data = type { %struct._ikev2_uat_data_key, i32, i32, ptr, i32, ptr, i32, ptr, i32, ptr, i32, ptr, ptr }
%struct._ikev2_uat_data_key = type { ptr, i32, ptr, i32 }

@.str.1051 = private unnamed_addr constant [1 x i8] zeroinitializer, align 1

; Function Attrs: null_pointer_is_valid sspstrong uwtable
define internal void @ikev2_users_sk_ar_tostr_cb(ptr noundef %0, ptr noundef %1, ptr noundef %2, ptr noundef %3, ptr noundef %4) #0 {
  %6 = alloca ptr, align 8
  %7 = alloca ptr, align 8
  %8 = alloca ptr, align 8
  %9 = alloca ptr, align 8
  %10 = alloca ptr, align 8
  store ptr %0, ptr %6, align 8
  store ptr %1, ptr %7, align 8
  store ptr %2, ptr %8, align 8
  store ptr %3, ptr %9, align 8
  store ptr %4, ptr %10, align 8
  %11 = load ptr, ptr %6, align 8
  %12 = getelementptr inbounds nuw %struct._ikev2_uat_data, ptr %11, i32 0, i32 9
  %13 = load ptr, ptr %12, align 8
  %14 = icmp ne ptr %13, null
  br i1 %14, label %15, label %24

15:                                               ; preds = %5
  %16 = load ptr, ptr %6, align 8
  %17 = getelementptr inbounds nuw %struct._ikev2_uat_data, ptr %16, i32 0, i32 9
  %18 = load ptr, ptr %17, align 8
  %19 = load ptr, ptr %6, align 8
  %20 = getelementptr inbounds nuw %struct._ikev2_uat_data, ptr %19, i32 0, i32 10
  %21 = load i32, ptr %20, align 8
  %22 = zext i32 %21 to i64
  %23 = call ptr @g_memdup2(ptr noundef %18, i64 noundef %22) #17
  br label %26

24:                                               ; preds = %5
  %25 = call noalias ptr @g_strdup(ptr noundef @.str.1051)
  br label %26

26:                                               ; preds = %24, %15
  %27 = phi ptr [ %23, %15 ], [ %25, %24 ]
  %28 = load ptr, ptr %7, align 8
  store ptr %27, ptr %28, align 8
  %29 = load ptr, ptr %6, align 8
  %30 = getelementptr inbounds nuw %struct._ikev2_uat_data, ptr %29, i32 0, i32 10
  %31 = load i32, ptr %30, align 8
  %32 = load ptr, ptr %8, align 8
  store i32 %31, ptr %32, align 4
  ret void
}